; Function Attrs: nounwind sspstrong uwtable
define internal range(i64 0, 21) i64 @ossl_ec_point_is_on_curve(i64 noundef %0) #0 {
  %2 = tail call ptr @rb_check_typeddata(i64 noundef %0, ptr noundef nonnull @ossl_ec_point_type) #7
  %3 = icmp eq ptr %2, null
  br i1 %3, label %4, label %6

4:                                                ; preds = %1
  %5 = load i64, ptr @eEC_POINT, align 8, !tbaa !6
  tail call void (i64, ptr, ...) @ossl_raise(i64 noundef %5, ptr noundef nonnull @.str.85) #9
  unreachable

6:                                                ; preds = %1
  %7 = load i64, ptr @id_i_group, align 8, !tbaa !6
  %8 = tail call i64 @rb_attr_get(i64 noundef %0, i64 noundef %7) #7
  %9 = tail call ptr @rb_check_typeddata(i64 noundef %8, ptr noundef nonnull @ossl_ec_group_type) #7
  %10 = icmp eq ptr %9, null
  br i1 %10, label %11, label %13

11:                                               ; preds = %6
  %12 = load i64, ptr @eEC_GROUP, align 8, !tbaa !6
  tail call void (i64, ptr, ...) @ossl_raise(i64 noundef %12, ptr noundef nonnull @.str.59) #9
  unreachable

13:                                               ; preds = %6
  %14 = tail call ptr @ossl_bn_ctx_get() #7
  %15 = tail call i32 @EC_POINT_is_on_curve(ptr noundef nonnull %9, ptr noundef nonnull %2, ptr noundef %14) #7
  switch i32 %15, label %17 [
    i32 1, label %19
    i32 0, label %16
  ]

16:                                               ; preds = %13
  br label %19

17:                                               ; preds = %13
  %18 = load i64, ptr @eEC_POINT, align 8, !tbaa !6
  tail call void (i64, ptr, ...) @ossl_raise(i64 noundef %18, ptr noundef nonnull @.str.104) #9
  unreachable

19:                                               ; preds = %13, %16
  %.0 = phi i64 [ 0, %16 ], [ 20, %13 ]
  ret i64 %.0
}